; Function Attrs: mustprogress nofree norecurse nosync nounwind willreturn memory(argmem: write) uwtable
define dso_local void @_ZN4llvm9LegalizerC2Ev(ptr noundef nonnull writeonly align 8 captures(none) dereferenceable(56) initializes((0, 28), (32, 56)) %0) unnamed_addr #2 align 2 {
  %2 = getelementptr inbounds nuw i8, ptr %0, i64 8
  store ptr null, ptr %2, align 8
  %3 = getelementptr inbounds nuw i8, ptr %0, i64 16
  store ptr @_ZN4llvm9Legalizer2IDE, ptr %3, align 8
  %4 = getelementptr inbounds nuw i8, ptr %0, i64 24
  store i32 2, ptr %4, align 8
  %5 = getelementptr inbounds nuw i8, ptr %0, i64 32
  tail call void @llvm.memset.p0.i64(ptr noundef nonnull align 8 dereferenceable(24) %5, i8 0, i64 24, i1 false)
  store ptr getelementptr inbounds nuw inrange(-16, 176) (i8, ptr @_ZTVN4llvm9LegalizerE, i64 16), ptr %0, align 8
  ret void
}